target datalayout = "e-m:e-p270:32:32-p271:32:32-p272:64:64-i64:64-i128:128-f80:128-n8:16:32:64-S128"
target triple = "x86_64-pc-linux-gnu"

%struct.pbl_descriptor_pool_t = type { ptr, ptr, ptr, ptr, ptr, ptr }
%struct.pbl_node_t = type { i32, ptr, ptr, ptr, ptr, ptr, ptr, i32 }
%struct._GSList = type { ptr, ptr }

@.str.2 = private unnamed_addr constant [1 x i8] zeroinitializer, align 1

; Function Attrs: null_pointer_is_valid sspstrong uwtable
define internal ptr @pbl_find_node_in_pool(ptr noundef %0, ptr noundef %1, i32 noundef %2) #0 {
  %4 = alloca ptr, align 8
  %5 = alloca ptr, align 8
  %6 = alloca ptr, align 8
  %7 = alloca i32, align 4
  %8 = alloca ptr, align 8
  %9 = alloca i32, align 4
  %10 = alloca i32, align 4
  %11 = alloca ptr, align 8
  %12 = alloca ptr, align 8
  %13 = alloca ptr, align 8
  %14 = alloca ptr, align 8
  %15 = alloca i32, align 4
  store ptr %0, ptr %5, align 8
  store ptr %1, ptr %6, align 8
  store i32 %2, ptr %7, align 4
  call void @llvm.lifetime.start.p0(i64 8, ptr %8) #13
  call void @llvm.lifetime.start.p0(i64 4, ptr %9) #13
  call void @llvm.lifetime.start.p0(i64 4, ptr %10) #13
  call void @llvm.lifetime.start.p0(i64 8, ptr %11) #13
  call void @llvm.lifetime.start.p0(i64 8, ptr %12) #13
  store ptr null, ptr %12, align 8
  call void @llvm.lifetime.start.p0(i64 8, ptr %13) #13
  store ptr null, ptr %13, align 8
  call void @llvm.lifetime.start.p0(i64 8, ptr %14) #13
  store ptr null, ptr %14, align 8
  %16 = load ptr, ptr %5, align 8
  %17 = icmp eq ptr %16, null
  br i1 %17, label %26, label %18

18:                                               ; preds = %3
  %19 = load ptr, ptr %6, align 8
  %20 = icmp eq ptr %19, null
  br i1 %20, label %26, label %21

21:                                               ; preds = %18
  %22 = load ptr, ptr %5, align 8
  %23 = getelementptr inbounds nuw %struct.pbl_descriptor_pool_t, ptr %22, i32 0, i32 2
  %24 = load ptr, ptr %23, align 8
  %25 = icmp eq ptr %24, null
  br i1 %25, label %26, label %27

26:                                               ; preds = %21, %18, %3
  store ptr null, ptr %4, align 8
  store i32 1, ptr %15, align 4
  br label %144

27:                                               ; preds = %21
  %28 = load ptr, ptr %6, align 8
  %29 = getelementptr i8, ptr %28, i64 0
  %30 = load i8, ptr %29, align 1
  %31 = sext i8 %30 to i32
  %32 = icmp eq i32 %31, 46
  br i1 %32, label %33, label %36

33:                                               ; preds = %27
  %34 = load ptr, ptr %6, align 8
  %35 = getelementptr i8, ptr %34, i32 1
  store ptr %35, ptr %6, align 8
  br label %36

36:                                               ; preds = %33, %27
  %37 = load ptr, ptr %6, align 8
  %38 = call noalias ptr @g_strdup(ptr noundef %37)
  store ptr %38, ptr %8, align 8
  %39 = load ptr, ptr %8, align 8
  %40 = call i64 @strlen(ptr noundef %39) #16
  %41 = trunc i64 %40 to i32
  store i32 %41, ptr %9, align 4
  %42 = load i32, ptr %9, align 4
  %43 = sub i32 %42, 1
  store i32 %43, ptr %10, align 4
  br label %44

44:                                               ; preds = %133, %36
  %45 = load i32, ptr %10, align 4
  %46 = icmp sge i32 %45, 0
  br i1 %46, label %47, label %136

47:                                               ; preds = %44
  %48 = load ptr, ptr %8, align 8
  %49 = load i32, ptr %10, align 4
  %50 = sext i32 %49 to i64
  %51 = getelementptr i8, ptr %48, i64 %50
  %52 = load i8, ptr %51, align 1
  %53 = sext i8 %52 to i32
  %54 = icmp eq i32 %53, 46
  br i1 %54, label %58, label %55

55:                                               ; preds = %47
  %56 = load i32, ptr %10, align 4
  %57 = icmp eq i32 %56, 0
  br i1 %57, label %58, label %132

58:                                               ; preds = %55, %47
  %59 = load i32, ptr %10, align 4
  %60 = icmp eq i32 %59, 0
  br i1 %60, label %61, label %69

61:                                               ; preds = %58
  %62 = load ptr, ptr %13, align 8
  %63 = load ptr, ptr %8, align 8
  %64 = call ptr @g_slist_prepend(ptr noundef %62, ptr noundef %63)
  store ptr %64, ptr %13, align 8
  %65 = load ptr, ptr %5, align 8
  %66 = getelementptr inbounds nuw %struct.pbl_descriptor_pool_t, ptr %65, i32 0, i32 2
  %67 = load ptr, ptr %66, align 8
  %68 = call ptr @g_hash_table_lookup(ptr noundef %67, ptr noundef @.str.2)
  store ptr %68, ptr %11, align 8
  br label %86

69:                                               ; preds = %58
  %70 = load ptr, ptr %13, align 8
  %71 = load ptr, ptr %8, align 8
  %72 = load i32, ptr %10, align 4
  %73 = sext i32 %72 to i64
  %74 = getelementptr i8, ptr %71, i64 %73
  %75 = getelementptr i8, ptr %74, i64 1
  %76 = call ptr @g_slist_prepend(ptr noundef %70, ptr noundef %75)
  store ptr %76, ptr %13, align 8
  %77 = load ptr, ptr %8, align 8
  %78 = load i32, ptr %10, align 4
  %79 = sext i32 %78 to i64
  %80 = getelementptr i8, ptr %77, i64 %79
  store i8 0, ptr %80, align 1
  %81 = load ptr, ptr %5, align 8
  %82 = getelementptr inbounds nuw %struct.pbl_descriptor_pool_t, ptr %81, i32 0, i32 2
  %83 = load ptr, ptr %82, align 8
  %84 = load ptr, ptr %8, align 8
  %85 = call ptr @g_hash_table_lookup(ptr noundef %83, ptr noundef %84)
  store ptr %85, ptr %11, align 8
  br label %86

86:                                               ; preds = %69, %61
  %87 = load ptr, ptr %11, align 8
  %88 = icmp ne ptr %87, null
  br i1 %88, label %89, label %131

89:                                               ; preds = %86
  %90 = load ptr, ptr %11, align 8
  store ptr %90, ptr %12, align 8
  %91 = load ptr, ptr %13, align 8
  store ptr %91, ptr %14, align 8
  br label %92

92:                                               ; preds = %113, %89
  %93 = load ptr, ptr %14, align 8
  %94 = icmp ne ptr %93, null
  br i1 %94, label %95, label %103

95:                                               ; preds = %92
  %96 = load ptr, ptr %12, align 8
  %97 = icmp ne ptr %96, null
  br i1 %97, label %98, label %103

98:                                               ; preds = %95
  %99 = load ptr, ptr %12, align 8
  %100 = getelementptr inbounds nuw %struct.pbl_node_t, ptr %99, i32 0, i32 5
  %101 = load ptr, ptr %100, align 8
  %102 = icmp ne ptr %101, null
  br label %103

103:                                              ; preds = %98, %95, %92
  %104 = phi i1 [ false, %95 ], [ false, %92 ], [ %102, %98 ]
  br i1 %104, label %105, label %117

105:                                              ; preds = %103
  %106 = load ptr, ptr %12, align 8
  %107 = getelementptr inbounds nuw %struct.pbl_node_t, ptr %106, i32 0, i32 5
  %108 = load ptr, ptr %107, align 8
  %109 = load ptr, ptr %14, align 8
  %110 = getelementptr inbounds nuw %struct._GSList, ptr %109, i32 0, i32 0
  %111 = load ptr, ptr %110, align 8
  %112 = call ptr @g_hash_table_lookup(ptr noundef %108, ptr noundef %111)
  store ptr %112, ptr %12, align 8
  br label %113

113:                                              ; preds = %105
  %114 = load ptr, ptr %14, align 8
  %115 = getelementptr inbounds nuw %struct._GSList, ptr %114, i32 0, i32 1
  %116 = load ptr, ptr %115, align 8
  store ptr %116, ptr %14, align 8
  br label %92, !llvm.loop !11

117:                                              ; preds = %103
  %118 = load ptr, ptr %14, align 8
  %119 = icmp eq ptr %118, null
  br i1 %119, label %120, label %130

120:                                              ; preds = %117
  %121 = load ptr, ptr %12, align 8
  %122 = icmp ne ptr %121, null
  br i1 %122, label %123, label %130

123:                                              ; preds = %120
  %124 = load ptr, ptr %12, align 8
  %125 = getelementptr inbounds nuw %struct.pbl_node_t, ptr %124, i32 0, i32 0
  %126 = load i32, ptr %125, align 8
  %127 = load i32, ptr %7, align 4
  %128 = icmp eq i32 %126, %127
  br i1 %128, label %129, label %130

129:                                              ; preds = %123
  br label %136

130:                                              ; preds = %123, %120, %117
  store ptr null, ptr %12, align 8
  br label %131

131:                                              ; preds = %130, %86
  br label %132

132:                                              ; preds = %131, %55
  br label %133

133:                                              ; preds = %132
  %134 = load i32, ptr %10, align 4
  %135 = add i32 %134, -1
  store i32 %135, ptr %10, align 4
  br label %44, !llvm.loop !12

136:                                              ; preds = %129, %44
  %137 = load ptr, ptr %13, align 8
  %138 = icmp ne ptr %137, null
  br i1 %138, label %139, label %141

139:                                              ; preds = %136
  %140 = load ptr, ptr %13, align 8
  call void @g_slist_free(ptr noundef %140)
  br label %141

141:                                              ; preds = %139, %136
  %142 = load ptr, ptr %8, align 8
  call void @g_free(ptr noundef %142)
  %143 = load ptr, ptr %12, align 8
  store ptr %143, ptr %4, align 8
  store i32 1, ptr %15, align 4
  br label %144

144:                                              ; preds = %141, %26
  call void @llvm.lifetime.end.p0(i64 8, ptr %14) #13
  call void @llvm.lifetime.end.p0(i64 8, ptr %13) #13
  call void @llvm.lifetime.end.p0(i64 8, ptr %12) #13
  call void @llvm.lifetime.end.p0(i64 8, ptr %11) #13
  call void @llvm.lifetime.end.p0(i64 4, ptr %10) #13
  call void @llvm.lifetime.end.p0(i64 4, ptr %9) #13
  call void @llvm.lifetime.end.p0(i64 8, ptr %8) #13
  %145 = load ptr, ptr %4, align 8
  ret ptr %145
}