; Function Attrs: null_pointer_is_valid sspstrong uwtable
define internal fastcc noundef ptr @pbl_find_node_in_pool(ptr noundef readonly captures(address_is_null) %0, ptr noundef %1, i32 noundef range(i32 2, 10) %2) unnamed_addr #0 {
  %4 = icmp eq ptr %0, null
  %5 = icmp eq ptr %1, null
  %or.cond = or i1 %4, %5
  br i1 %or.cond, label %46, label %6

6:                                                ; preds = %3
  %7 = getelementptr inbounds nuw i8, ptr %0, i64 16
  %8 = load ptr, ptr %7, align 8
  %9 = icmp eq ptr %8, null
  br i1 %9, label %46, label %10

10:                                               ; preds = %6
  %11 = load i8, ptr %1, align 1
  %12 = icmp eq i8 %11, 46
  %spec.select.idx = zext i1 %12 to i64
  %spec.select = getelementptr i8, ptr %1, i64 %spec.select.idx
  %13 = tail call noalias ptr @g_strdup(ptr noundef %spec.select)
  %14 = tail call i64 @strlen(ptr noundef %13) #15
  %15 = trunc i64 %14 to i32
  %.05470 = add i32 %15, -1
  %16 = icmp sgt i32 %.05470, -1
  br i1 %16, label %.lr.ph73.preheader, label %._crit_edge.thread

.lr.ph73.preheader:                               ; preds = %10
  %17 = zext nneg i32 %.05470 to i64
  br label %.lr.ph73

.lr.ph73:                                         ; preds = %.lr.ph73.preheader, %.critedge.thread
  %indvars.iv = phi i64 [ %17, %.lr.ph73.preheader ], [ %indvars.iv.next, %.critedge.thread ]
  %.04871 = phi ptr [ null, %.lr.ph73.preheader ], [ %.3, %.critedge.thread ]
  %18 = getelementptr i8, ptr %13, i64 %indvars.iv
  %19 = load i8, ptr %18, align 1
  %20 = icmp eq i8 %19, 46
  %21 = icmp eq i64 %indvars.iv, 0
  %or.cond3 = or i1 %21, %20
  br i1 %or.cond3, label %22, label %.critedge.thread

22:                                               ; preds = %.lr.ph73
  br i1 %21, label %23, label %25

23:                                               ; preds = %22
  %24 = tail call ptr @g_slist_prepend(ptr noundef %.04871, ptr noundef %13)
  br label %28

25:                                               ; preds = %22
  %26 = getelementptr i8, ptr %18, i64 1
  %27 = tail call ptr @g_slist_prepend(ptr noundef %.04871, ptr noundef %26)
  store i8 0, ptr %18, align 1
  br label %28

28:                                               ; preds = %25, %23
  %.sink94 = phi ptr [ %13, %25 ], [ @.str.2, %23 ]
  %.2 = phi ptr [ %27, %25 ], [ %24, %23 ]
  %29 = load ptr, ptr %7, align 8
  %30 = tail call ptr @g_hash_table_lookup(ptr noundef %29, ptr noundef %.sink94)
  %.not = icmp eq ptr %30, null
  br i1 %.not, label %.critedge.thread, label %.preheader

.preheader:                                       ; preds = %28
  %.not79 = icmp eq ptr %.2, null
  br i1 %.not79, label %.critedge.thread84, label %.lr.ph

.lr.ph:                                           ; preds = %.preheader, %33
  %.067 = phi ptr [ %37, %33 ], [ %.2, %.preheader ]
  %.25166 = phi ptr [ %35, %33 ], [ %30, %.preheader ]
  %31 = getelementptr inbounds nuw i8, ptr %.25166, i64 40
  %32 = load ptr, ptr %31, align 8
  %.not60 = icmp eq ptr %32, null
  br i1 %.not60, label %.critedge.thread, label %33

33:                                               ; preds = %.lr.ph
  %34 = load ptr, ptr %.067, align 8
  %35 = tail call ptr @g_hash_table_lookup(ptr noundef nonnull %32, ptr noundef %34)
  %36 = getelementptr inbounds nuw i8, ptr %.067, i64 8
  %37 = load ptr, ptr %36, align 8
  %38 = icmp ne ptr %37, null
  %39 = icmp ne ptr %35, null
  %or.cond5 = select i1 %38, i1 %39, i1 false
  br i1 %or.cond5, label %.lr.ph, label %.critedge, !llvm.loop !14

.critedge:                                        ; preds = %33
  %40 = icmp eq ptr %37, null
  %41 = select i1 %40, i1 %39, i1 false
  br i1 %41, label %.critedge.thread84, label %.critedge.thread

.critedge.thread84:                               ; preds = %.preheader, %.critedge
  %.251.lcssa87 = phi ptr [ %35, %.critedge ], [ %30, %.preheader ]
  %42 = load i32, ptr %.251.lcssa87, align 8
  %43 = icmp eq i32 %42, %2
  br i1 %43, label %._crit_edge, label %.critedge.thread

.critedge.thread:                                 ; preds = %.lr.ph, %.critedge, %.critedge.thread84, %.lr.ph73, %28
  %.3 = phi ptr [ %.2, %28 ], [ %.04871, %.lr.ph73 ], [ %.2, %.critedge.thread84 ], [ %.2, %.critedge ], [ %.2, %.lr.ph ]
  %indvars.iv.next = add nsw i64 %indvars.iv, -1
  %44 = icmp sgt i64 %indvars.iv, 0
  br i1 %44, label %.lr.ph73, label %._crit_edge, !llvm.loop !15

._crit_edge:                                      ; preds = %.critedge.thread, %.critedge.thread84
  %.150 = phi ptr [ null, %.critedge.thread ], [ %.251.lcssa87, %.critedge.thread84 ]
  %.1 = phi ptr [ %.3, %.critedge.thread ], [ %.2, %.critedge.thread84 ]
  %.not61 = icmp eq ptr %.1, null
  br i1 %.not61, label %._crit_edge.thread, label %45

45:                                               ; preds = %._crit_edge
  tail call void @g_slist_free(ptr noundef nonnull %.1)
  br label %._crit_edge.thread

._crit_edge.thread:                               ; preds = %10, %45, %._crit_edge
  %.15091 = phi ptr [ %.150, %45 ], [ %.150, %._crit_edge ], [ null, %10 ]
  tail call void @g_free(ptr noundef %13)
  br label %46

46:                                               ; preds = %3, %6, %._crit_edge.thread
  %.055 = phi ptr [ %.15091, %._crit_edge.thread ], [ null, %6 ], [ null, %3 ]
  ret ptr %.055
}